80483fa <if0>:
 80483fa: 55                    push   %ebp
 80483fb: 89 e5                 mov    %esp,%ebp
 80483fd: 83 ec 28              sub    $0x28,%esp
 8048400: c7 45 f4 00 00 00 00  movl   $0x0,-0xc(%ebp)
 8048407: 8b 45 f4              mov    -0xc(%ebp),%eax
 804840a: 8b 00                 mov    (%eax),%eax
 804840c: 83 f8 0e              cmp    $0xe,%eax
 804840f: 75 0c                 jne    804841d <if0+0x23>
 8048411: c7 04 24 30 87 04 08  movl   $0x8048730,(%esp)
 8048418: e8 d3 fe ff ff        call   80482f0 <puts@plt>
 804841d: b8 00 00 00 00        mov    $0x0,%eax
 8048422: c9                    leave
 8048423: c3                    ret

08048424 <if1>:
 8048424: 55                    push   %ebp
 8048425: 89 e5                 mov    %esp,%ebp
 8048427: 83 ec 28              sub    $0x28,%esp
 804842a: c7 45 f4 00 00 00 00  movl   $0x0,-0xc(%ebp)
 8048431: 8b 45 f4              mov    -0xc(%ebp),%eax
 8048434: 8b 00                 mov    (%eax),%eax
 8048436: 83 f8 0e              cmp    $0xe,%eax
 8048439: 75 0e                 jne    8048449 <if1+0x25>
 804843b: c7 04 24 32 87 04 08  movl   $0x8048732,(%esp)
 8048442: e8 a9 fe ff ff        call   80482f0 <puts@plt>
 8048447: eb 0c                 jmp    8048455 <if1+0x31>
 8048449: c7 04 24 35 87 04 08  movl   $0x8048735,(%esp)
 8048450: e8 9b fe ff ff        call   80482f0 <puts@plt>
 8048455: b8 00 00 00 00        mov    $0x0,%eax
 804845a: c9                    leave
 804845b: c3                    ret

0804845c <if2>:
 804845c: 55                    push   %ebp
 804845d: 89 e5                 mov    %esp,%ebp
 804845f: 83 ec 28              sub    $0x28,%esp
 8048462: c7 45 f4 00 00 00 00  movl   $0x0,-0xc(%ebp)
 8048469: 8b 45 f4              mov    -0xc(%ebp),%eax
 804846c: 8b 00                 mov    (%eax),%eax
 804846e: 83 f8 0e              cmp    $0xe,%eax
 8048471: 75 0e                 jne    8048481 <if2+0x25>
 8048473: c7 04 24 38 87 04 08  movl   $0x8048738,(%esp)
 804847a: e8 71 fe ff ff        call   80482f0 <puts@plt>
 804847f: eb 2e                 jmp    80484af <if2+0x53>
 8048481: 8b 45 f4              mov    -0xc(%ebp),%eax
 8048484: 8b 00                 mov    (%eax),%eax
 8048486: 83 f8 16              cmp    $0x16,%eax
 8048489: 75 0e                 jne    8048499 <if2+0x3d>
 804848b: c7 04 24 3b 87 04 08  movl   $0x804873b,(%esp)
 8048492: e8 59 fe ff ff        call   80482f0 <puts@plt>
 8048497: eb 16                 jmp    80484af <if2+0x53>
 8048499: 8b 45 f4              mov    -0xc(%ebp),%eax
 804849c: 8b 00                 mov    (%eax),%eax
 804849e: 83 f8 2c              cmp    $0x2c,%eax
 80484a1: 75 0c                 jne    80484af <if2+0x53>
 80484a3: c7 04 24 3e 87 04 08  movl   $0x804873e,(%esp)
 80484aa: e8 41 fe ff ff        call   80482f0 <puts@plt>
 80484af: b8 00 00 00 00        mov    $0x0,%eax
 80484b4: c9                    leave
 80484b5: c3                    ret

080484b6 <if3>:
 80484b6: 55                    push   %ebp
 80484b7: 89 e5                 mov    %esp,%ebp
 80484b9: 83 ec 28              sub    $0x28,%esp
 80484bc: c7 45 f4 00 00 00 00  movl   $0x0,-0xc(%ebp)
 80484c3: 8b 45 f4              mov    -0xc(%ebp),%eax
 80484c6: 8b 00                 mov    (%eax),%eax
 80484c8: 83 f8 03              cmp    $0x3,%eax
 80484cb: 74 0a                 je     80484d7 <if3+0x21>
 80484cd: 8b 45 f4              mov    -0xc(%ebp),%eax
 80484d0: 8b 00                 mov    (%eax),%eax
 80484d2: 83 f8 04              cmp    $0x4,%eax
 80484d5: 75 0c                 jne    80484e3 <if3+0x2d>
 80484d7: c7 04 24 41 87 04 08  movl   $0x8048741,(%esp)
 80484de: e8 0d fe ff ff        call   80482f0 <puts@plt>
 80484e3: b8 00 00 00 00        mov    $0x0,%eax
 80484e8: c9                    leave
 80484e9: c3                    ret

080484ea <if4>:
 80484ea: 55                    push   %ebp
 80484eb: 89 e5                 mov    %esp,%ebp
 80484ed: 83 ec 28              sub    $0x28,%esp
 80484f0: c7 45 f4 00 00 00 00  movl   $0x0,-0xc(%ebp)
 80484f7: 8b 45 f4              mov    -0xc(%ebp),%eax
 80484fa: 8b 00                 mov    (%eax),%eax
 80484fc: 83 f8 03              cmp    $0x3,%eax
 80484ff: 75 16                 jne    8048517 <if4+0x2d>
 8048501: 8b 45 f4              mov    -0xc(%ebp),%eax
 8048504: 8b 00                 mov    (%eax),%eax
 8048506: 83 f8 04              cmp    $0x4,%eax
 8048509: 75 0c                 jne    8048517 <if4+0x2d>
 804850b: c7 04 24 43 87 04 08  movl   $0x8048743,(%esp)
 8048512: e8 d9 fd ff ff        call   80482f0 <puts@plt>
 8048517: b8 00 00 00 00        mov    $0x0,%eax
 804851c: c9                    leave
 804851d: c3                    ret

0804851e <if5>:
 804851e: 55                    push   %ebp
 804851f: 89 e5                 mov    %esp,%ebp
 8048521: 83 ec 28              sub    $0x28,%esp
 8048524: c7 45 f4 00 00 00 00  movl   $0x0,-0xc(%ebp)
 804852b: 8b 45 f4              mov    -0xc(%ebp),%eax
 804852e: 8b 00                 mov    (%eax),%eax
 8048530: 83 f8 03              cmp    $0x3,%eax
 8048533: 74 10                 je     8048545 <if5+0x27>
 8048535: 83 7d f4 00           cmpl   $0x0,-0xc(%ebp)
 8048539: 74 16                 je     8048551 <if5+0x33>
 804853b: 8b 45 f4              mov    -0xc(%ebp),%eax
 804853e: 8b 00                 mov    (%eax),%eax
 8048540: 83 f8 04              cmp    $0x4,%eax
 8048543: 75 0c                 jne    8048551 <if5+0x33>
 8048545: c7 04 24 45 87 04 08  movl   $0x8048745,(%esp)
 804854c: e8 9f fd ff ff        call   80482f0 <puts@plt>
 8048551: b8 00 00 00 00        mov    $0x0,%eax
 8048556: c9                    leave
 8048557: c3                    ret

08048558 <if6>:
 8048558: 55                    push   %ebp
 8048559: 89 e5                 mov    %esp,%ebp
 804855b: 83 ec 10              sub    $0x10,%esp
 804855e: c7 45 fc 00 00 00 00  movl   $0x0,-0x4(%ebp)
 8048565: 8b 45 fc              mov    -0x4(%ebp),%eax
 8048568: 8b 00                 mov    (%eax),%eax
 804856a: 3d 8f 01 00 00        cmp    $0x18f,%eax
 804856f: 7f 07                 jg     8048578 <if6+0x20>
 8048571: b8 01 00 00 00        mov    $0x1,%eax
 8048576: eb 5d                 jmp    80485d5 <if6+0x7d>
 8048578: 8b 45 fc              mov    -0x4(%ebp),%eax
 804857b: 8b 00                 mov    (%eax),%eax
 804857d: 3d f4 01 00 00        cmp    $0x1f4,%eax
 8048582: 7f 07                 jg     804858b <if6+0x33>
 8048584: b8 02 00 00 00        mov    $0x2,%eax
 8048589: eb 4a                 jmp    80485d5 <if6+0x7d>
 804858b: 8b 45 fc              mov    -0x4(%ebp),%eax
 804858e: 8b 00                 mov    (%eax),%eax
 8048590: 3d 58 02 00 00        cmp    $0x258,%eax
 8048595: 7e 07                 jle    804859e <if6+0x46>
 8048597: b8 03 00 00 00        mov    $0x3,%eax
 804859c: eb 37                 jmp    80485d5 <if6+0x7d>
 804859e: 8b 45 fc              mov    -0x4(%ebp),%eax
 80485a1: 8b 00                 mov    (%eax),%eax
 80485a3: 3d bb 02 00 00        cmp    $0x2bb,%eax
 80485a8: 7e 07                 jle    80485b1 <if6+0x59>
 80485aa: b8 04 00 00 00        mov    $0x4,%eax
 80485af: eb 24                 jmp    80485d5 <if6+0x7d>
 80485b1: 8b 45 fc              mov    -0x4(%ebp),%eax
 80485b4: 8b 00                 mov    (%eax),%eax
 80485b6: 3d 20 03 00 00        cmp    $0x320,%eax
 80485bb: 7f 0c                 jg     80485c9 <if6+0x71>
 80485bd: 8b 45 fc              mov    -0x4(%ebp),%eax
 80485c0: 8b 00                 mov    (%eax),%eax
 80485c2: 3d 20 03 00 00        cmp    $0x320,%eax
 80485c7: 75 07                 jne    80485d0 <if6+0x78>
 80485c9: b8 05 00 00 00        mov    $0x5,%eax
 80485ce: eb 05                 jmp    80485d5 <if6+0x7d>
 80485d0: b8 00 00 00 00        mov    $0x0,%eax
 80485d5: c9                    leave
 80485d6: c3                    ret

080485d7 <if7>:
 80485d7: 55                    push   %ebp
 80485d8: 89 e5                 mov    %esp,%ebp
 80485da: 83 ec 10              sub    $0x10,%esp
 80485dd: c7 45 fc 00 00 00 00  movl   $0x0,-0x4(%ebp)
 80485e4: 8b 45 fc              mov    -0x4(%ebp),%eax
 80485e7: 8b 00                 mov    (%eax),%eax
 80485e9: 3d 8f 01 00 00        cmp    $0x18f,%eax
 80485ee: 77 07                 ja     80485f7 <if7+0x20>
 80485f0: b8 01 00 00 00        mov    $0x1,%eax
 80485f5: eb 5d                 jmp    8048654 <if7+0x7d>
 80485f7: 8b 45 fc              mov    -0x4(%ebp),%eax
 80485fa: 8b 00                 mov    (%eax),%eax
 80485fc: 3d f4 01 00 00        cmp    $0x1f4,%eax
 8048601: 77 07                 ja     804860a <if7+0x33>
 8048603: b8 02 00 00 00        mov    $0x2,%eax
 8048608: eb 4a                 jmp    8048654 <if7+0x7d>
 804860a: 8b 45 fc              mov    -0x4(%ebp),%eax
 804860d: 8b 00                 mov    (%eax),%eax
 804860f: 3d 58 02 00 00        cmp    $0x258,%eax
 8048614: 76 07                 jbe    804861d <if7+0x46>
 8048616: b8 03 00 00 00        mov    $0x3,%eax
 804861b: eb 37                 jmp    8048654 <if7+0x7d>
 804861d: 8b 45 fc              mov    -0x4(%ebp),%eax
 8048620: 8b 00                 mov    (%eax),%eax
 8048622: 3d bb 02 00 00        cmp    $0x2bb,%eax
 8048627: 76 07                 jbe    8048630 <if7+0x59>
 8048629: b8 04 00 00 00        mov    $0x4,%eax
 804862e: eb 24                 jmp    8048654 <if7+0x7d>
 8048630: 8b 45 fc              mov    -0x4(%ebp),%eax
 8048633: 8b 00                 mov    (%eax),%eax
 8048635: 3d 20 03 00 00        cmp    $0x320,%eax
 804863a: 77 0c                 ja     8048648 <if7+0x71>
 804863c: 8b 45 fc              mov    -0x4(%ebp),%eax
 804863f: 8b 00                 mov    (%eax),%eax
 8048641: 3d 20 03 00 00        cmp    $0x320,%eax
 8048646: 75 07                 jne    804864f <if7+0x78>
 8048648: b8 05 00 00 00        mov    $0x5,%eax
 804864d: eb 05                 jmp    8048654 <if7+0x7d>
 804864f: b8 00 00 00 00        mov    $0x0,%eax
 8048654: c9                    leave
 8048655: c3                    ret
