08048453 <loop0>:
 8048453: 55                    push   %ebp
 8048454: 89 e5                 mov    %esp,%ebp
 8048456: 83 ec 28              sub    $0x28,%esp
 8048459: 8b 55 f4              mov    -0xc(%ebp),%edx
 804845c: 83 45 f4 01           addl   $0x1,-0xc(%ebp)
 8048460: b8 60 89 04 08        mov    $0x8048960,%eax
 8048465: 89 54 24 04           mov    %edx,0x4(%esp)
 8048469: 89 04 24              mov    %eax,(%esp)
 804846c: e8 af fe ff ff        call   8048320 <printf@plt>
 8048471: eb e6                 jmp    8048459 <loop0+0x6>

08048473 <loop1>:
 8048473: 55                    push   %ebp
 8048474: 89 e5                 mov    %esp,%ebp
 8048476: 83 ec 28              sub    $0x28,%esp
 8048479: c7 45 f4 00 00 00 00  movl   $0x0,-0xc(%ebp)
 8048480: eb 18                 jmp    804849a <loop1+0x27>
 8048482: b8 60 89 04 08        mov    $0x8048960,%eax
 8048487: 8b 55 f4              mov    -0xc(%ebp),%edx
 804848a: 89 54 24 04           mov    %edx,0x4(%esp)
 804848e: 89 04 24              mov    %eax,(%esp)
 8048491: e8 8a fe ff ff        call   8048320 <printf@plt>
 8048496: 83 45 f4 01           addl   $0x1,-0xc(%ebp)
 804849a: 83 7d f4 1d           cmpl   $0x1d,-0xc(%ebp)
 804849e: 7e e2                 jle    8048482 <loop1+0xf>
 80484a0: b8 00 00 00 00        mov    $0x0,%eax
 80484a5: c9                    leave
 80484a6: c3                    ret

080484a7 <loop2>:
 80484a7: 55                    push   %ebp
 80484a8: 89 e5                 mov    %esp,%ebp
 80484aa: 83 ec 28              sub    $0x28,%esp
 80484ad: c7 45 f4 00 00 00 00  movl   $0x0,-0xc(%ebp)
 80484b4: eb 18                 jmp    80484ce <loop2+0x27>
 80484b6: 8b 55 f4              mov    -0xc(%ebp),%edx
 80484b9: 83 45 f4 01           addl   $0x1,-0xc(%ebp)
 80484bd: b8 60 89 04 08        mov    $0x8048960,%eax
 80484c2: 89 54 24 04           mov    %edx,0x4(%esp)
 80484c6: 89 04 24              mov    %eax,(%esp)
 80484c9: e8 52 fe ff ff        call   8048320 <printf@plt>
 80484ce: 83 7d f4 09           cmpl   $0x9,-0xc(%ebp)
 80484d2: 7e e2                 jle    80484b6 <loop2+0xf>
 80484d4: b8 00 00 00 00        mov    $0x0,%eax
 80484d9: c9                    leave
 80484da: c3                    ret

080484db <loop3>:
 80484db: 55                    push   %ebp
 80484dc: 89 e5                 mov    %esp,%ebp
 80484de: 83 ec 28              sub    $0x28,%esp
 80484e1: c7 45 f4 00 00 00 00  movl   $0x0,-0xc(%ebp)
 80484e8: 8b 55 f4              mov    -0xc(%ebp),%edx
 80484eb: 83 45 f4 01           addl   $0x1,-0xc(%ebp)
 80484ef: b8 60 89 04 08        mov    $0x8048960,%eax
 80484f4: 89 54 24 04           mov    %edx,0x4(%esp)
 80484f8: 89 04 24              mov    %eax,(%esp)
 80484fb: e8 20 fe ff ff        call   8048320 <printf@plt>
 8048500: 83 7d f4 09           cmpl   $0x9,-0xc(%ebp)
 8048504: 7e e2                 jle    80484e8 <loop3+0xd>
 8048506: b8 00 00 00 00        mov    $0x0,%eax
 804850b: c9                    leave
 804850c: c3                    ret

0804850d <loop4>:
 804850d: 55                    push   %ebp
 804850e: 89 e5                 mov    %esp,%ebp
 8048510: 83 ec 28              sub    $0x28,%esp
 8048513: c7 45 f4 00 00 00 00  movl   $0x0,-0xc(%ebp)
 804851a: eb 35                 jmp    8048551 <loop4+0x44>
 804851c: 83 7d f4 04           cmpl   $0x4,-0xc(%ebp)
 8048520: 75 0e                 jne    8048530 <loop4+0x23>
 8048522: c7 04 24 64 89 04 08  movl   $0x8048964,(%esp)
 8048529: e8 02 fe ff ff        call   8048330 <puts@plt>
 804852e: eb 06                 jmp    8048536 <loop4+0x29>
 8048530: 83 7d f4 0c           cmpl   $0xc,-0xc(%ebp)
 8048534: 74 16                 je     804854c <loop4+0x3f>
 8048536: b8 60 89 04 08        mov    $0x8048960,%eax
 804853b: 8b 55 f4              mov    -0xc(%ebp),%edx
 804853e: 89 54 24 04           mov    %edx,0x4(%esp)
 8048542: 89 04 24              mov    %eax,(%esp)
 8048545: e8 d6 fd ff ff        call   8048320 <printf@plt>
 804854a: eb 01                 jmp    804854d <loop4+0x40>
 804854c: 90                    nop
 804854d: 83 45 f4 01           addl   $0x1,-0xc(%ebp)
 8048551: 83 7d f4 1d           cmpl   $0x1d,-0xc(%ebp)
 8048555: 7e c5                 jle    804851c <loop4+0xf>
 8048557: b8 00 00 00 00        mov    $0x0,%eax
 804855c: c9                    leave
 804855d: c3                    ret

0804855e <loop5>:
 804855e: 55                    push   %ebp
 804855f: 89 e5                 mov    %esp,%ebp
 8048561: 83 ec 28              sub    $0x28,%esp
 8048564: c7 45 f4 00 00 00 00  movl   $0x0,-0xc(%ebp)
 804856b: eb 31                 jmp    804859e <loop5+0x40>
 804856d: 83 7d f4 05           cmpl   $0x5,-0xc(%ebp)
 8048571: 75 0e                 jne    8048581 <loop5+0x23>
 8048573: c7 04 24 69 89 04 08  movl   $0x8048969,(%esp)
 804857a: e8 b1 fd ff ff        call   8048330 <puts@plt>
 804857f: eb 06                 jmp    8048587 <loop5+0x29>
 8048581: 83 7d f4 0c           cmpl   $0xc,-0xc(%ebp)
 8048585: 74 16                 je     804859d <loop5+0x3f>
 8048587: b8 60 89 04 08        mov    $0x8048960,%eax
 804858c: 8b 55 f4              mov    -0xc(%ebp),%edx
 804858f: 89 54 24 04           mov    %edx,0x4(%esp)
 8048593: 89 04 24              mov    %eax,(%esp)
 8048596: e8 85 fd ff ff        call   8048320 <printf@plt>
 804859b: eb 01                 jmp    804859e <loop5+0x40>
 804859d: 90                    nop
 804859e: 83 7d f4 0a           cmpl   $0xa,-0xc(%ebp)
 80485a2: 0f 95 c0              setne  %al
 80485a5: 83 45 f4 01           addl   $0x1,-0xc(%ebp)
 80485a9: 84 c0                 test   %al,%al
 80485ab: 75 c0                 jne    804856d <loop5+0xf>
 80485ad: b8 00 00 00 00        mov    $0x0,%eax
 80485b2: c9                    leave
 80485b3: c3                    ret

080485b4 <loop6>:
 80485b4: 55                    push   %ebp
 80485b5: 89 e5                 mov    %esp,%ebp
 80485b7: 83 ec 28              sub    $0x28,%esp
 80485ba: c7 45 f4 00 00 00 00  movl   $0x0,-0xc(%ebp)
 80485c1: 83 7d f4 06           cmpl   $0x6,-0xc(%ebp)
 80485c5: 75 0e                 jne    80485d5 <loop6+0x21>
 80485c7: c7 04 24 6e 89 04 08  movl   $0x804896e,(%esp)
 80485ce: e8 5d fd ff ff        call   8048330 <puts@plt>
 80485d3: eb 14                 jmp    80485e9 <loop6+0x35>
 80485d5: b8 60 89 04 08        mov    $0x8048960,%eax
 80485da: 8b 55 f4              mov    -0xc(%ebp),%edx
 80485dd: 89 54 24 04           mov    %edx,0x4(%esp)
 80485e1: 89 04 24              mov    %eax,(%esp)
 80485e4: e8 37 fd ff ff        call   8048320 <printf@plt>
 80485e9: 83 7d f4 09           cmpl   $0x9,-0xc(%ebp)
 80485ed: 0f 9e c0              setle  %al
 80485f0: 83 45 f4 01           addl   $0x1,-0xc(%ebp)
 80485f4: 84 c0                 test   %al,%al
 80485f6: 75 c9                 jne    80485c1 <loop6+0xd>
 80485f8: b8 00 00 00 00        mov    $0x0,%eax
 80485fd: c9                    leave
 80485fe: c3                    ret

080485ff <loop7>:
 80485ff: 55                    push   %ebp
 8048600: 89 e5                 mov    %esp,%ebp
 8048602: 83 ec 28              sub    $0x28,%esp
 8048605: c7 45 f4 00 00 00 00  movl   $0x0,-0xc(%ebp)
 804860c: eb 2c                 jmp    804863a <loop7+0x3b>
 804860e: 83 7d f4 07           cmpl   $0x7,-0xc(%ebp)
 8048612: 75 0e                 jne    8048622 <loop7+0x23>
 8048614: c7 04 24 72 89 04 08  movl   $0x8048972,(%esp)
 804861b: e8 10 fd ff ff        call   8048330 <puts@plt>
 8048620: eb 1e                 jmp    8048640 <loop7+0x41>
 8048622: b8 60 89 04 08        mov    $0x8048960,%eax
 8048627: 8b 55 f4              mov    -0xc(%ebp),%edx
 804862a: 89 54 24 04           mov    %edx,0x4(%esp)
 804862e: 89 04 24              mov    %eax,(%esp)
 8048631: e8 ea fc ff ff        call   8048320 <printf@plt>
 8048636: 83 45 f4 01           addl   $0x1,-0xc(%ebp)
 804863a: 83 7d f4 1d           cmpl   $0x1d,-0xc(%ebp)
 804863e: 7e ce                 jle    804860e <loop7+0xf>
 8048640: b8 00 00 00 00        mov    $0x0,%eax
 8048645: c9                    leave
 8048646: c3                    ret

08048647 <loop8>:
 8048647: 55                    push   %ebp
 8048648: 89 e5                 mov    %esp,%ebp
 804864a: 83 ec 28              sub    $0x28,%esp
 804864d: c7 45 f4 00 00 00 00  movl   $0x0,-0xc(%ebp)
 8048654: eb 28                 jmp    804867e <loop8+0x37>
 8048656: 83 7d f4 08           cmpl   $0x8,-0xc(%ebp)
 804865a: 75 0e                 jne    804866a <loop8+0x23>
 804865c: c7 04 24 78 89 04 08  movl   $0x8048978,(%esp)
 8048663: e8 c8 fc ff ff        call   8048330 <puts@plt>
 8048668: eb 23                 jmp    804868d <loop8+0x46>
 804866a: b8 60 89 04 08        mov    $0x8048960,%eax
 804866f: 8b 55 f4              mov    -0xc(%ebp),%edx
 8048672: 89 54 24 04           mov    %edx,0x4(%esp)
 8048676: 89 04 24              mov    %eax,(%esp)
 8048679: e8 a2 fc ff ff        call   8048320 <printf@plt>
 804867e: 83 7d f4 09           cmpl   $0x9,-0xc(%ebp)
 8048682: 0f 9e c0              setle  %al
 8048685: 83 45 f4 01           addl   $0x1,-0xc(%ebp)
 8048689: 84 c0                 test   %al,%al
 804868b: 75 c9                 jne    8048656 <loop8+0xf>
 804868d: b8 00 00 00 00        mov    $0x0,%eax
 8048692: c9                    leave
 8048693: c3                    ret

08048694 <loop9>:
 8048694: 55                    push   %ebp
 8048695: 89 e5                 mov    %esp,%ebp
 8048697: 83 ec 28              sub    $0x28,%esp
 804869a: c7 45 f4 00 00 00 00  movl   $0x0,-0xc(%ebp)
 80486a1: 83 7d f4 09           cmpl   $0x9,-0xc(%ebp)
 80486a5: 75 0e                 jne    80486b5 <loop9+0x21>
 80486a7: c7 04 24 7f 89 04 08  movl   $0x804897f,(%esp)
 80486ae: e8 7d fc ff ff        call   8048330 <puts@plt>
 80486b3: eb 23                 jmp    80486d8 <loop9+0x44>
 80486b5: b8 60 89 04 08        mov    $0x8048960,%eax
 80486ba: 8b 55 f4              mov    -0xc(%ebp),%edx
 80486bd: 89 54 24 04           mov    %edx,0x4(%esp)
 80486c1: 89 04 24              mov    %eax,(%esp)
 80486c4: e8 57 fc ff ff        call   8048320 <printf@plt>
 80486c9: 83 7d f4 09           cmpl   $0x9,-0xc(%ebp)
 80486cd: 0f 9e c0              setle  %al
 80486d0: 83 45 f4 01           addl   $0x1,-0xc(%ebp)
 80486d4: 84 c0                 test   %al,%al
 80486d6: 75 c9                 jne    80486a1 <loop9+0xd>
 80486d8: b8 00 00 00 00        mov    $0x0,%eax
 80486dd: c9                    leave
 80486de: c3                    ret

080486df <loop10>:
 80486df: 55                    push   %ebp
 80486e0: 89 e5                 mov    %esp,%ebp
 80486e2: 83 ec 28              sub    $0x28,%esp
 80486e5: c7 45 f0 00 00 00 00  movl   $0x0,-0x10(%ebp)
 80486ec: eb 4e                 jmp    804873c <loop10+0x5d>
 80486ee: 83 7d f0 04           cmpl   $0x4,-0x10(%ebp)
 80486f2: 75 0e                 jne    8048702 <loop10+0x23>
 80486f4: c7 04 24 64 89 04 08  movl   $0x8048964,(%esp)
 80486fb: e8 30 fc ff ff        call   8048330 <puts@plt>
 8048700: eb 22                 jmp    8048724 <loop10+0x45>
 8048702: 83 7d f0 0c           cmpl   $0xc,-0x10(%ebp)
 8048706: 75 0b                 jne    8048713 <loop10+0x34>
 8048708: 8b 45 f4              mov    -0xc(%ebp),%eax
 804870b: c7 00 12 00 00 00     movl   $0x12,(%eax)
 8048711: eb 25                 jmp    8048738 <loop10+0x59>
 8048713: 83 7d f0 06           cmpl   $0x6,-0x10(%ebp)
 8048717: 75 0b                 jne    8048724 <loop10+0x45>
 8048719: 8b 45 f4              mov    -0xc(%ebp),%eax
 804871c: c7 00 0a 00 00 00     movl   $0xa,(%eax)
 8048722: eb 14                 jmp    8048738 <loop10+0x59>
 8048724: b8 60 89 04 08        mov    $0x8048960,%eax
 8048729: 8b 55 f0              mov    -0x10(%ebp),%edx
 804872c: 89 54 24 04           mov    %edx,0x4(%esp)
 8048730: 89 04 24              mov    %eax,(%esp)
 8048733: e8 e8 fb ff ff        call   8048320 <printf@plt>
 8048738: 83 45 f0 01           addl   $0x1,-0x10(%ebp)
 804873c: 83 7d f0 1d           cmpl   $0x1d,-0x10(%ebp)
 8048740: 7e ac                 jle    80486ee <loop10+0xf>
 8048742: b8 00 00 00 00        mov    $0x0,%eax
 8048747: c9                    leave
 8048748: c3                    ret

08048749 <loop11>:
 8048749: 55                    push   %ebp
 804874a: 89 e5                 mov    %esp,%ebp
 804874c: 83 ec 28              sub    $0x28,%esp
 804874f: c7 45 f4 00 00 00 00  movl   $0x0,-0xc(%ebp)
 8048756: eb 60                 jmp    80487b8 <loop11+0x6f>
 8048758: c7 45 f0 00 00 00 00  movl   $0x0,-0x10(%ebp)
 804875f: eb 1f                 jmp    8048780 <loop11+0x37>
 8048761: b8 84 89 04 08        mov    $0x8048984,%eax
 8048766: 8b 55 f4              mov    -0xc(%ebp),%edx
 8048769: 89 54 24 08           mov    %edx,0x8(%esp)
 804876d: 8b 55 f0              mov    -0x10(%ebp),%edx
 8048770: 89 54 24 04           mov    %edx,0x4(%esp)
 8048774: 89 04 24              mov    %eax,(%esp)
 8048777: e8 a4 fb ff ff        call   8048320 <printf@plt>
 804877c: 83 45 f0 01           addl   $0x1,-0x10(%ebp)
 8048780: 83 7d f0 1d           cmpl   $0x1d,-0x10(%ebp)
 8048784: 7e db                 jle    8048761 <loop11+0x18>
 8048786: c7 45 f0 00 00 00 00  movl   $0x0,-0x10(%ebp)
 804878d: eb 1f                 jmp    80487ae <loop11+0x65>
 804878f: b8 84 89 04 08        mov    $0x8048984,%eax
 8048794: 8b 55 f4              mov    -0xc(%ebp),%edx
 8048797: 89 54 24 08           mov    %edx,0x8(%esp)
 804879b: 8b 55 f0              mov    -0x10(%ebp),%edx
 804879e: 89 54 24 04           mov    %edx,0x4(%esp)
 80487a2: 89 04 24              mov    %eax,(%esp)
 80487a5: e8 76 fb ff ff        call   8048320 <printf@plt>
 80487aa: 83 45 f0 01           addl   $0x1,-0x10(%ebp)
 80487ae: 83 7d f0 1d           cmpl   $0x1d,-0x10(%ebp)
 80487b2: 7e db                 jle    804878f <loop11+0x46>
 80487b4: 83 45 f4 01           addl   $0x1,-0xc(%ebp)
 80487b8: 83 7d f4 1d           cmpl   $0x1d,-0xc(%ebp)
 80487bc: 7e 9a                 jle    8048758 <loop11+0xf>
 80487be: b8 00 00 00 00        mov    $0x0,%eax
 80487c3: c9                    leave
 80487c4: c3                    ret

080487c5 <loop12>:
 80487c5: 55                    push   %ebp
 80487c6: 89 e5                 mov    %esp,%ebp
 80487c8: 83 ec 28              sub    $0x28,%esp
 80487cb: c7 45 f4 00 00 00 00  movl   $0x0,-0xc(%ebp)
 80487d2: eb 5a                 jmp    804882e <loop12+0x69>
 80487d4: c7 45 f0 00 00 00 00  movl   $0x0,-0x10(%ebp)
 80487db: eb 33                 jmp    8048810 <loop12+0x4b>
 80487dd: 83 7d f0 08           cmpl   $0x8,-0x10(%ebp)
 80487e1: 75 0e                 jne    80487f1 <loop12+0x2c>
 80487e3: c7 04 24 8a 89 04 08  movl   $0x804898a,(%esp)
 80487ea: e8 41 fb ff ff        call   8048330 <puts@plt>
 80487ef: eb 25                 jmp    8048816 <loop12+0x51>
 80487f1: b8 84 89 04 08        mov    $0x8048984,%eax
 80487f6: 8b 55 f4              mov    -0xc(%ebp),%edx
 80487f9: 89 54 24 08           mov    %edx,0x8(%esp)
 80487fd: 8b 55 f0              mov    -0x10(%ebp),%edx
 8048800: 89 54 24 04           mov    %edx,0x4(%esp)
 8048804: 89 04 24              mov    %eax,(%esp)
 8048807: e8 14 fb ff ff        call   8048320 <printf@plt>
 804880c: 83 45 f0 01           addl   $0x1,-0x10(%ebp)
 8048810: 83 7d f0 1d           cmpl   $0x1d,-0x10(%ebp)
 8048814: 7e c7                 jle    80487dd <loop12+0x18>
 8048816: b8 60 89 04 08        mov    $0x8048960,%eax
 804881b: 8b 55 f4              mov    -0xc(%ebp),%edx
 804881e: 89 54 24 04           mov    %edx,0x4(%esp)
 8048822: 89 04 24              mov    %eax,(%esp)
 8048825: e8 f6 fa ff ff        call   8048320 <printf@plt>
 804882a: 83 45 f4 01           addl   $0x1,-0xc(%ebp)
 804882e: 83 7d f4 1d           cmpl   $0x1d,-0xc(%ebp)
 8048832: 7e a0                 jle    80487d4 <loop12+0xf>
 8048834: b8 00 00 00 00        mov    $0x0,%eax
 8048839: c9                    leave
 804883a: c3                    ret

0804883b <loop13>:
 804883b: 55                    push   %ebp
 804883c: 89 e5                 mov    %esp,%ebp
 804883e: 83 ec 28              sub    $0x28,%esp
 8048841: c7 45 f4 00 00 00 00  movl   $0x0,-0xc(%ebp)
 8048848: eb 36                 jmp    8048880 <loop13+0x45>
 804884a: 8b 55 f0              mov    -0x10(%ebp),%edx
 804884d: 83 45 f0 01           addl   $0x1,-0x10(%ebp)
 8048851: b8 60 89 04 08        mov    $0x8048960,%eax
 8048856: 89 54 24 04           mov    %edx,0x4(%esp)
 804885a: 89 04 24              mov    %eax,(%esp)
 804885d: e8 be fa ff ff        call   8048320 <printf@plt>
 8048862: 83 7d f0 09           cmpl   $0x9,-0x10(%ebp)
 8048866: 7e e2                 jle    804884a <loop13+0xf>
 8048868: b8 60 89 04 08        mov    $0x8048960,%eax
 804886d: 8b 55 f4              mov    -0xc(%ebp),%edx
 8048870: 89 54 24 04           mov    %edx,0x4(%esp)
 8048874: 89 04 24              mov    %eax,(%esp)
 8048877: e8 a4 fa ff ff        call   8048320 <printf@plt>
 804887c: 83 45 f4 01           addl   $0x1,-0xc(%ebp)
 8048880: 83 7d f4 1d           cmpl   $0x1d,-0xc(%ebp)
 8048884: 7e c4                 jle    804884a <loop13+0xf>
 8048886: b8 00 00 00 00        mov    $0x0,%eax
 804888b: c9                    leave
 804888c: c3                    ret
 804888d: 90                    nop
 804888e: 90                    nop
 804888f: 90                    nop
